target datalayout = "e-m:e-p270:32:32-p271:32:32-p272:64:64-i64:64-i128:128-f80:128-n8:16:32:64-S128"
target triple = "x86_64-pc-linux-gnu"

%class.anon = type { i8 }
%class.anon.0 = type { i8 }
%class.anon.2 = type { i8 }
%class.anon.4 = type { i8 }
%class.anon.6 = type { i8 }
%class.anon.8 = type { i8 }

; Function Attrs: inlinehint mustprogress nounwind uwtable
define internal noundef ptr @"_ZZN9benchmark12FittingCurveENS_4BigOEENK3$_5cvPFdlEEv"(ptr noundef nonnull align 1 dereferenceable(1) %0) #6 align 2 {
  %2 = alloca ptr, align 8
  store ptr %0, ptr %2, align 8, !tbaa !9
  ret ptr @"_ZZN9benchmark12FittingCurveENS_4BigOEEN3$_58__invokeEl"
}

; Function Attrs: inlinehint mustprogress nounwind uwtable
define internal noundef ptr @"_ZZN9benchmark12FittingCurveENS_4BigOEENK3$_4cvPFdlEEv"(ptr noundef nonnull align 1 dereferenceable(1) %0) #6 align 2 {
  %2 = alloca ptr, align 8
  store ptr %0, ptr %2, align 8, !tbaa !9
  ret ptr @"_ZZN9benchmark12FittingCurveENS_4BigOEEN3$_48__invokeEl"
}

; Function Attrs: inlinehint mustprogress nounwind uwtable
define internal noundef ptr @"_ZZN9benchmark12FittingCurveENS_4BigOEENK3$_3cvPFdlEEv"(ptr noundef nonnull align 1 dereferenceable(1) %0) #6 align 2 {
  %2 = alloca ptr, align 8
  store ptr %0, ptr %2, align 8, !tbaa !9
  ret ptr @"_ZZN9benchmark12FittingCurveENS_4BigOEEN3$_38__invokeEl"
}

; Function Attrs: inlinehint mustprogress nounwind uwtable
define internal noundef ptr @"_ZZN9benchmark12FittingCurveENS_4BigOEENK3$_2cvPFdlEEv"(ptr noundef nonnull align 1 dereferenceable(1) %0) #6 align 2 {
  %2 = alloca ptr, align 8
  store ptr %0, ptr %2, align 8, !tbaa !9
  ret ptr @"_ZZN9benchmark12FittingCurveENS_4BigOEEN3$_28__invokeEl"
}

; Function Attrs: inlinehint mustprogress nounwind uwtable
define internal noundef ptr @"_ZZN9benchmark12FittingCurveENS_4BigOEENK3$_1cvPFdlEEv"(ptr noundef nonnull align 1 dereferenceable(1) %0) #6 align 2 {
  %2 = alloca ptr, align 8
  store ptr %0, ptr %2, align 8, !tbaa !9
  ret ptr @"_ZZN9benchmark12FittingCurveENS_4BigOEEN3$_18__invokeEl"
}

; Function Attrs: inlinehint mustprogress nounwind uwtable
define internal noundef ptr @"_ZZN9benchmark12FittingCurveENS_4BigOEENK3$_0cvPFdlEEv"(ptr noundef nonnull align 1 dereferenceable(1) %0) #6 align 2 {
  %2 = alloca ptr, align 8
  store ptr %0, ptr %2, align 8, !tbaa !9
  ret ptr @"_ZZN9benchmark12FittingCurveENS_4BigOEEN3$_08__invokeEl"
}

; Function Attrs: mustprogress nounwind uwtable
define hidden noundef ptr @_ZN9benchmark12FittingCurveENS_4BigOE(i32 noundef %0) #4 {
  %2 = alloca ptr, align 8
  %3 = alloca i32, align 4
  %4 = alloca %class.anon, align 1
  %5 = alloca %class.anon.0, align 1
  %6 = alloca %class.anon.2, align 1
  %7 = alloca %class.anon.4, align 1
  %8 = alloca %class.anon.6, align 1
  %9 = alloca %class.anon.8, align 1
  store i32 %0, ptr %3, align 4, !tbaa !7
  %10 = load i32, ptr %3, align 4, !tbaa !7
  switch i32 %10, label %22 [
    i32 2, label %11
    i32 3, label %13
    i32 4, label %15
    i32 5, label %17
    i32 6, label %19
    i32 1, label %21
  ]

11:                                               ; preds = %1
  call void @llvm.lifetime.start.p0(i64 1, ptr %4) #3
  %12 = call noundef ptr @"_ZZN9benchmark12FittingCurveENS_4BigOEENK3$_0cvPFdlEEv"(ptr noundef nonnull align 1 dereferenceable(1) %4) #3
  store ptr %12, ptr %2, align 8
  call void @llvm.lifetime.end.p0(i64 1, ptr %4) #3
  br label %24

13:                                               ; preds = %1
  call void @llvm.lifetime.start.p0(i64 1, ptr %5) #3
  %14 = call noundef ptr @"_ZZN9benchmark12FittingCurveENS_4BigOEENK3$_1cvPFdlEEv"(ptr noundef nonnull align 1 dereferenceable(1) %5) #3
  store ptr %14, ptr %2, align 8
  call void @llvm.lifetime.end.p0(i64 1, ptr %5) #3
  br label %24

15:                                               ; preds = %1
  call void @llvm.lifetime.start.p0(i64 1, ptr %6) #3
  %16 = call noundef ptr @"_ZZN9benchmark12FittingCurveENS_4BigOEENK3$_2cvPFdlEEv"(ptr noundef nonnull align 1 dereferenceable(1) %6) #3
  store ptr %16, ptr %2, align 8
  call void @llvm.lifetime.end.p0(i64 1, ptr %6) #3
  br label %24

17:                                               ; preds = %1
  call void @llvm.lifetime.start.p0(i64 1, ptr %7) #3
  %18 = call noundef ptr @"_ZZN9benchmark12FittingCurveENS_4BigOEENK3$_3cvPFdlEEv"(ptr noundef nonnull align 1 dereferenceable(1) %7) #3
  store ptr %18, ptr %2, align 8
  call void @llvm.lifetime.end.p0(i64 1, ptr %7) #3
  br label %24

19:                                               ; preds = %1
  call void @llvm.lifetime.start.p0(i64 1, ptr %8) #3
  %20 = call noundef ptr @"_ZZN9benchmark12FittingCurveENS_4BigOEENK3$_4cvPFdlEEv"(ptr noundef nonnull align 1 dereferenceable(1) %8) #3
  store ptr %20, ptr %2, align 8
  call void @llvm.lifetime.end.p0(i64 1, ptr %8) #3
  br label %24

21:                                               ; preds = %1
  br label %22

22:                                               ; preds = %1, %21
  call void @llvm.lifetime.start.p0(i64 1, ptr %9) #3
  %23 = call noundef ptr @"_ZZN9benchmark12FittingCurveENS_4BigOEENK3$_5cvPFdlEEv"(ptr noundef nonnull align 1 dereferenceable(1) %9) #3
  store ptr %23, ptr %2, align 8
  call void @llvm.lifetime.end.p0(i64 1, ptr %9) #3
  br label %24

24:                                               ; preds = %22, %19, %17, %15, %13, %11
  %25 = load ptr, ptr %2, align 8
  ret ptr %25
}