; Function Attrs: mustprogress nofree norecurse nosync nounwind willreturn memory(none) uwtable
define hidden noundef nonnull ptr @_ZN9benchmark12FittingCurveENS_4BigOE(i32 noundef %0) local_unnamed_addr #3 {
  %switch.tableidx = add i32 %0, -2
  %2 = icmp ult i32 %switch.tableidx, 5
  br i1 %2, label %switch.lookup, label %4

switch.lookup:                                    ; preds = %1
  %3 = zext nneg i32 %switch.tableidx to i64
  %switch.gep = getelementptr inbounds nuw [5 x ptr], ptr @switch.table._ZN9benchmark14MinimalLeastSqERKSt6vectorIlSaIlEERKS0_IdSaIdEENS_4BigOE, i64 0, i64 %3
  %switch.load = load ptr, ptr %switch.gep, align 8
  br label %4

4:                                                ; preds = %1, %switch.lookup
  %.0 = phi ptr [ %switch.load, %switch.lookup ], [ @"_ZZN9benchmark12FittingCurveENS_4BigOEEN3$_58__invokeEl", %1 ]
  ret ptr %.0
}